target datalayout = "e-m:e-p270:32:32-p271:32:32-p272:64:64-i64:64-i128:128-f80:128-n8:16:32:64-S128"
target triple = "x86_64-pc-linux-gnu"

%struct.PlatformTarget = type { ptr, i32, ptr, ptr, i32, i32, i32, i32, i32, i32, i32, [7 x %struct.AlignData], [7 x %struct.AlignData], [7 x %struct.AlignData], i32, i16, %union.anon.88, i8, i8, i8, i8, i8, i8, i8, i8, i8, i8, %struct.AlignData, i32, i32, i32, i32, i32, i32, i32, i32, i32, i32, i32, i32, i32, i32, i32, i32, ptr }
%union.anon.88 = type { %struct.anon.90 }
%struct.anon.90 = type { %struct.X86Features, i32, i32 }
%struct.X86Features = type { [2 x i64], ptr }
%struct.AlignData = type { i32, i32 }
%struct.Expr_ = type { ptr, %union.SourceSpan, i16, %union.anon.29 }
%union.SourceSpan = type { i64 }
%union.anon.29 = type { %struct.ExprAnySwitch }
%struct.ExprAnySwitch = type { i8, %union.anon.31 }
%union.anon.31 = type { %struct.anon.32 }
%struct.anon.32 = type { ptr, %union.SourceSpan, ptr }
%struct.Type_ = type { i32, ptr, ptr, ptr, %union.anon.85, ptr, ptr, %union.anon.87 }
%union.anon.85 = type { ptr }
%union.anon.87 = type { %struct.TypeFunction }
%struct.TypeFunction = type { ptr, ptr, ptr }
%struct.Decl_ = type { ptr, ptr, %union.SourceSpan, i64, %union.anon, i32, %union.anon.0, i64, ptr, ptr, ptr, %union.anon.1 }
%union.anon = type { ptr }
%union.anon.0 = type { i16 }
%union.anon.1 = type { %struct.FuncDecl }
%struct.FuncDecl = type { i32, [4 x i8], %struct.Signature_, i32, i32, %union.anon.8 }
%struct.Signature_ = type <{ %struct.CalleeAttributes, i16, i8, i32, i32, [4 x i8], ptr }>
%struct.CalleeAttributes = type { i8 }
%union.anon.8 = type { %struct.anon.9 }
%struct.anon.9 = type { i16, %union.anon.10 }
%union.anon.10 = type { ptr }
%struct.anon.2 = type { ptr, ptr, %union.anon.3 }
%union.anon.3 = type { %struct.BitStructDecl }
%struct.BitStructDecl = type { ptr, ptr, i8 }
%struct.TypeInfo_ = type { i16, ptr, %union.SourceSpan, %union.anon.56 }
%union.anon.56 = type { %struct.anon.57 }
%struct.anon.57 = type { ptr, ptr }
%struct.TypeArray = type { ptr, i32 }

@type_cint = external global ptr, align 8
@type_double = external global ptr, align 8
@.str.2 = private unnamed_addr constant [36 x i8] c"FATAL ERROR %s -> in %s @ in %s:%d \00", align 1
@.str.3 = private unnamed_addr constant [22 x i8] c"Should be unreachable\00", align 1
@platform_target = external global %struct.PlatformTarget, align 8
@__func__.type_flatten = private unnamed_addr constant [13 x i8] c"type_flatten\00", align 1
@.str.10 = private unnamed_addr constant [118 x i8] c"generated/home/dtcxzyw/WorkSpace/Projects/compilers/llvm-opt-benchmark/bench/c3c/c3c/src/compiler/compiler_internal.h\00", align 1

; Function Attrs: nounwind uwtable
define internal ptr @type_flatten(ptr noundef %0) #0 {
  %2 = alloca ptr, align 8
  store ptr %0, ptr %2, align 8
  br label %3

3:                                                ; preds = %28, %1
  %4 = load ptr, ptr %2, align 8
  %5 = getelementptr inbounds %struct.Type_, ptr %4, i32 0, i32 1
  %6 = load ptr, ptr %5, align 8
  store ptr %6, ptr %2, align 8
  %7 = load ptr, ptr %2, align 8
  %8 = getelementptr inbounds %struct.Type_, ptr %7, i32 0, i32 0
  %9 = load i32, ptr %8, align 8
  switch i32 %9, label %26 [
    i32 32, label %10
    i32 40, label %19
    i32 31, label %23
  ]

10:                                               ; preds = %3
  %11 = load ptr, ptr %2, align 8
  %12 = getelementptr inbounds %struct.Type_, ptr %11, i32 0, i32 7
  %13 = load ptr, ptr %12, align 8
  %14 = getelementptr inbounds %struct.Decl_, ptr %13, i32 0, i32 11
  %15 = getelementptr inbounds %struct.anon.2, ptr %14, i32 0, i32 2
  %16 = load ptr, ptr %15, align 8
  %17 = getelementptr inbounds %struct.TypeInfo_, ptr %16, i32 0, i32 1
  %18 = load ptr, ptr %17, align 8
  store ptr %18, ptr %2, align 8
  br label %28

19:                                               ; preds = %3
  %20 = load ptr, ptr %2, align 8
  %21 = getelementptr inbounds %struct.Type_, ptr %20, i32 0, i32 7
  %22 = load ptr, ptr %21, align 8
  store ptr %22, ptr %2, align 8
  br label %28

23:                                               ; preds = %3
  br label %24

24:                                               ; preds = %23
  call void (ptr, ...) @error_exit(ptr noundef @.str.2, ptr noundef @.str.3, ptr noundef @__func__.type_flatten, ptr noundef @.str.10, i32 noundef 2984) #6
  unreachable

25:                                               ; No predecessors!
  br label %26

26:                                               ; preds = %25, %3
  %27 = load ptr, ptr %2, align 8
  ret ptr %27

28:                                               ; preds = %19, %10
  br label %3
}

; Function Attrs: nounwind uwtable
define dso_local void @cast_promote_vararg(ptr noundef %0, ptr noundef %1) #0 {
  %3 = alloca ptr, align 8
  %4 = alloca i32, align 4
  %5 = alloca ptr, align 8
  %6 = alloca i32, align 4
  %7 = alloca ptr, align 8
  %8 = alloca ptr, align 8
  %9 = alloca i1, align 1
  %10 = alloca ptr, align 8
  %11 = alloca i32, align 4
  %12 = alloca i1, align 1
  %13 = alloca ptr, align 8
  %14 = alloca i32, align 4
  %15 = alloca i1, align 1
  %16 = alloca ptr, align 8
  %17 = alloca i32, align 4
  %18 = alloca ptr, align 8
  %19 = alloca ptr, align 8
  %20 = alloca ptr, align 8
  store ptr %0, ptr %18, align 8
  store ptr %1, ptr %19, align 8
  %21 = load ptr, ptr %19, align 8
  %22 = getelementptr inbounds %struct.Expr_, ptr %21, i32 0, i32 0
  %23 = load ptr, ptr %22, align 8
  %24 = call ptr @type_flatten(ptr noundef %23)
  store ptr %24, ptr %20, align 8
  %25 = load ptr, ptr %20, align 8
  store ptr %25, ptr %8, align 8
  %26 = load ptr, ptr %8, align 8
  store ptr %26, ptr %5, align 8
  %27 = load ptr, ptr %5, align 8
  %28 = load i32, ptr %27, align 8
  store i32 %28, ptr %6, align 4
  %29 = load i32, ptr %6, align 4
  %30 = icmp eq i32 %29, 31
  br i1 %30, label %31, label %36

31:                                               ; preds = %2
  %32 = load ptr, ptr %5, align 8
  %33 = getelementptr inbounds %struct.Type_, ptr %32, i32 0, i32 1
  %34 = load ptr, ptr %33, align 8
  %35 = load i32, ptr %34, align 8
  store i32 %35, ptr %6, align 4
  br label %36

36:                                               ; preds = %31, %2
  %37 = load i32, ptr %6, align 4
  %38 = icmp uge i32 %37, 2
  br i1 %38, label %39, label %42

39:                                               ; preds = %36
  %40 = load i32, ptr %6, align 4
  %41 = icmp ule i32 %40, 12
  br label %42

42:                                               ; preds = %39, %36
  %43 = phi i1 [ false, %36 ], [ %41, %39 ]
  br i1 %43, label %44, label %51

44:                                               ; preds = %42
  %45 = load ptr, ptr %8, align 8
  %46 = getelementptr inbounds %struct.Type_, ptr %45, i32 0, i32 7
  %47 = load i32, ptr %46, align 8
  %48 = and i32 %47, 255
  %49 = load i32, ptr getelementptr inbounds (%struct.PlatformTarget, ptr @platform_target, i32 0, i32 33), align 8
  %50 = icmp ult i32 %48, %49
  br label %51

51:                                               ; preds = %44, %42
  %52 = phi i1 [ false, %42 ], [ %50, %44 ]
  br i1 %52, label %53, label %78

53:                                               ; preds = %51
  %54 = load ptr, ptr %18, align 8
  %55 = load ptr, ptr %19, align 8
  %56 = load ptr, ptr @type_cint, align 8
  %57 = load ptr, ptr %19, align 8
  %58 = getelementptr inbounds %struct.Expr_, ptr %57, i32 0, i32 0
  %59 = load ptr, ptr %58, align 8
  store ptr %59, ptr %10, align 8
  %60 = load ptr, ptr %10, align 8
  %61 = icmp ne ptr %60, null
  br i1 %61, label %63, label %62

62:                                               ; preds = %53
  store i1 false, ptr %9, align 1
  br label %76

63:                                               ; preds = %53
  %64 = load ptr, ptr %10, align 8
  %65 = load i32, ptr %64, align 8
  store i32 %65, ptr %11, align 4
  %66 = load i32, ptr %11, align 4
  %67 = icmp eq i32 %66, 31
  br i1 %67, label %68, label %73

68:                                               ; preds = %63
  %69 = load ptr, ptr %10, align 8
  %70 = getelementptr inbounds %struct.Type_, ptr %69, i32 0, i32 1
  %71 = load ptr, ptr %70, align 8
  %72 = load i32, ptr %71, align 8
  store i32 %72, ptr %11, align 4
  br label %73

73:                                               ; preds = %68, %63
  %74 = load i32, ptr %11, align 4
  %75 = icmp eq i32 %74, 40
  store i1 %75, ptr %9, align 1
  br label %76

76:                                               ; preds = %73, %62
  %77 = load i1, ptr %9, align 1
  call void @cast_no_check(ptr noundef %54, ptr noundef %55, ptr noundef %56, i1 noundef zeroext %77)
  br label %173

78:                                               ; preds = %51
  %79 = load ptr, ptr %20, align 8
  store ptr %79, ptr %7, align 8
  %80 = load ptr, ptr %7, align 8
  %81 = getelementptr inbounds %struct.Type_, ptr %80, i32 0, i32 1
  %82 = load ptr, ptr %81, align 8
  store ptr %82, ptr %3, align 8
  %83 = load ptr, ptr %3, align 8
  %84 = load i32, ptr %83, align 8
  store i32 %84, ptr %4, align 4
  %85 = load i32, ptr %4, align 4
  %86 = icmp eq i32 %85, 31
  br i1 %86, label %87, label %92

87:                                               ; preds = %78
  %88 = load ptr, ptr %3, align 8
  %89 = getelementptr inbounds %struct.Type_, ptr %88, i32 0, i32 1
  %90 = load ptr, ptr %89, align 8
  %91 = load i32, ptr %90, align 8
  store i32 %91, ptr %4, align 4
  br label %92

92:                                               ; preds = %87, %78
  %93 = load i32, ptr %4, align 4
  %94 = icmp uge i32 %93, 13
  br i1 %94, label %95, label %98

95:                                               ; preds = %92
  %96 = load i32, ptr %4, align 4
  %97 = icmp ule i32 %96, 17
  br label %98

98:                                               ; preds = %95, %92
  %99 = phi i1 [ false, %92 ], [ %97, %95 ]
  br i1 %99, label %100, label %112

100:                                              ; preds = %98
  %101 = load ptr, ptr %7, align 8
  %102 = getelementptr inbounds %struct.Type_, ptr %101, i32 0, i32 7
  %103 = load i32, ptr %102, align 8
  %104 = lshr i32 %103, 8
  %105 = and i32 %104, 255
  %106 = load ptr, ptr @type_double, align 8
  %107 = getelementptr inbounds %struct.Type_, ptr %106, i32 0, i32 7
  %108 = load i32, ptr %107, align 8
  %109 = lshr i32 %108, 8
  %110 = and i32 %109, 255
  %111 = icmp slt i32 %105, %110
  br label %112

112:                                              ; preds = %100, %98
  %113 = phi i1 [ false, %98 ], [ %111, %100 ]
  br i1 %113, label %114, label %139

114:                                              ; preds = %112
  %115 = load ptr, ptr %18, align 8
  %116 = load ptr, ptr %19, align 8
  %117 = load ptr, ptr @type_double, align 8
  %118 = load ptr, ptr %19, align 8
  %119 = getelementptr inbounds %struct.Expr_, ptr %118, i32 0, i32 0
  %120 = load ptr, ptr %119, align 8
  store ptr %120, ptr %13, align 8
  %121 = load ptr, ptr %13, align 8
  %122 = icmp ne ptr %121, null
  br i1 %122, label %124, label %123

123:                                              ; preds = %114
  store i1 false, ptr %12, align 1
  br label %137

124:                                              ; preds = %114
  %125 = load ptr, ptr %13, align 8
  %126 = load i32, ptr %125, align 8
  store i32 %126, ptr %14, align 4
  %127 = load i32, ptr %14, align 4
  %128 = icmp eq i32 %127, 31
  br i1 %128, label %129, label %134

129:                                              ; preds = %124
  %130 = load ptr, ptr %13, align 8
  %131 = getelementptr inbounds %struct.Type_, ptr %130, i32 0, i32 1
  %132 = load ptr, ptr %131, align 8
  %133 = load i32, ptr %132, align 8
  store i32 %133, ptr %14, align 4
  br label %134

134:                                              ; preds = %129, %124
  %135 = load i32, ptr %14, align 4
  %136 = icmp eq i32 %135, 40
  store i1 %136, ptr %12, align 1
  br label %137

137:                                              ; preds = %134, %123
  %138 = load i1, ptr %12, align 1
  call void @cast_no_check(ptr noundef %115, ptr noundef %116, ptr noundef %117, i1 noundef zeroext %138)
  br label %173

139:                                              ; preds = %112
  %140 = load ptr, ptr %20, align 8
  %141 = getelementptr inbounds %struct.Type_, ptr %140, i32 0, i32 0
  %142 = load i32, ptr %141, align 8
  %143 = icmp eq i32 %142, 34
  br i1 %143, label %144, label %173

144:                                              ; preds = %139
  %145 = load ptr, ptr %18, align 8
  %146 = load ptr, ptr %19, align 8
  %147 = load ptr, ptr %20, align 8
  %148 = getelementptr inbounds %struct.Type_, ptr %147, i32 0, i32 7
  %149 = getelementptr inbounds %struct.TypeArray, ptr %148, i32 0, i32 0
  %150 = load ptr, ptr %149, align 8
  %151 = call ptr @type_get_ptr(ptr noundef %150)
  %152 = load ptr, ptr %19, align 8
  %153 = getelementptr inbounds %struct.Expr_, ptr %152, i32 0, i32 0
  %154 = load ptr, ptr %153, align 8
  store ptr %154, ptr %16, align 8
  %155 = load ptr, ptr %16, align 8
  %156 = icmp ne ptr %155, null
  br i1 %156, label %158, label %157

157:                                              ; preds = %144
  store i1 false, ptr %15, align 1
  br label %171

158:                                              ; preds = %144
  %159 = load ptr, ptr %16, align 8
  %160 = load i32, ptr %159, align 8
  store i32 %160, ptr %17, align 4
  %161 = load i32, ptr %17, align 4
  %162 = icmp eq i32 %161, 31
  br i1 %162, label %163, label %168

163:                                              ; preds = %158
  %164 = load ptr, ptr %16, align 8
  %165 = getelementptr inbounds %struct.Type_, ptr %164, i32 0, i32 1
  %166 = load ptr, ptr %165, align 8
  %167 = load i32, ptr %166, align 8
  store i32 %167, ptr %17, align 4
  br label %168

168:                                              ; preds = %163, %158
  %169 = load i32, ptr %17, align 4
  %170 = icmp eq i32 %169, 40
  store i1 %170, ptr %15, align 1
  br label %171

171:                                              ; preds = %168, %157
  %172 = load i1, ptr %15, align 1
  call void @cast_no_check(ptr noundef %145, ptr noundef %146, ptr noundef %151, i1 noundef zeroext %172)
  br label %173

173:                                              ; preds = %171, %139, %137, %76
  ret void
}