; Function Attrs: nounwind uwtable
define dso_local void @cast_promote_vararg(ptr noundef %0, ptr noundef %1) local_unnamed_addr #0 {
  %3 = load ptr, ptr %1, align 8
  br label %4

4:                                                ; preds = %17, %2
  %.0.i = phi ptr [ %3, %2 ], [ %.1.i, %17 ]
  %5 = getelementptr inbounds i8, ptr %.0.i, i64 8
  %6 = load ptr, ptr %5, align 8
  %7 = load i32, ptr %6, align 8
  switch i32 %7, label %type_flatten.exit [
    i32 32, label %8
    i32 40, label %14
    i32 31, label %16
  ]

8:                                                ; preds = %4
  %9 = getelementptr inbounds i8, ptr %6, i64 56
  %10 = load ptr, ptr %9, align 8
  %11 = getelementptr inbounds i8, ptr %10, i64 96
  %12 = load ptr, ptr %11, align 8
  %13 = getelementptr inbounds i8, ptr %12, i64 8
  br label %17

14:                                               ; preds = %4
  %15 = getelementptr inbounds i8, ptr %6, i64 56
  br label %17

16:                                               ; preds = %4
  tail call void (ptr, ...) @error_exit(ptr noundef nonnull @.str.2, ptr noundef nonnull @.str.3, ptr noundef nonnull @__func__.type_flatten, ptr noundef nonnull @.str.10, i32 noundef 2984) #11
  unreachable

17:                                               ; preds = %14, %8
  %.1.in.i = phi ptr [ %15, %14 ], [ %13, %8 ]
  %.1.i = load ptr, ptr %.1.in.i, align 8
  br label %4

type_flatten.exit:                                ; preds = %4
  %18 = add i32 %7, -2
  %19 = icmp ult i32 %18, 11
  br i1 %19, label %20, label %.critedge

20:                                               ; preds = %type_flatten.exit
  %21 = getelementptr inbounds i8, ptr %6, i64 56
  %22 = load i32, ptr %21, align 8
  %23 = and i32 %22, 255
  %24 = load i32, ptr getelementptr inbounds (%struct.PlatformTarget, ptr @platform_target, i64 0, i32 33), align 8
  %25 = icmp ult i32 %23, %24
  br i1 %25, label %26, label %.critedge

26:                                               ; preds = %20
  %27 = load ptr, ptr @type_cint, align 8
  %.not63 = icmp eq ptr %3, null
  br i1 %.not63, label %37, label %28

28:                                               ; preds = %26
  %29 = load i32, ptr %3, align 8
  %30 = icmp eq i32 %29, 31
  br i1 %30, label %31, label %35

31:                                               ; preds = %28
  %32 = getelementptr inbounds i8, ptr %3, i64 8
  %33 = load ptr, ptr %32, align 8
  %34 = load i32, ptr %33, align 8
  br label %35

35:                                               ; preds = %31, %28
  %.050 = phi i32 [ %34, %31 ], [ %29, %28 ]
  %36 = icmp eq i32 %.050, 40
  br label %37

37:                                               ; preds = %26, %35
  %.048 = phi i1 [ %36, %35 ], [ false, %26 ]
  tail call void @cast_no_check(ptr noundef %0, ptr noundef nonnull %1, ptr noundef %27, i1 noundef zeroext %.048)
  br label %87

.critedge:                                        ; preds = %type_flatten.exit, %20
  %38 = getelementptr inbounds i8, ptr %6, i64 8
  %39 = load ptr, ptr %38, align 8
  %40 = load i32, ptr %39, align 8
  %41 = icmp eq i32 %40, 31
  br i1 %41, label %42, label %46

42:                                               ; preds = %.critedge
  %43 = getelementptr inbounds i8, ptr %39, i64 8
  %44 = load ptr, ptr %43, align 8
  %45 = load i32, ptr %44, align 8
  br label %46

46:                                               ; preds = %42, %.critedge
  %.0 = phi i32 [ %45, %42 ], [ %40, %.critedge ]
  %47 = add i32 %.0, -13
  %48 = icmp ult i32 %47, 5
  br i1 %48, label %49, label %.critedge2

49:                                               ; preds = %46
  %50 = getelementptr inbounds i8, ptr %6, i64 56
  %51 = load i32, ptr %50, align 8
  %52 = lshr i32 %51, 8
  %53 = and i32 %52, 255
  %54 = load ptr, ptr @type_double, align 8
  %55 = getelementptr inbounds i8, ptr %54, i64 56
  %56 = load i32, ptr %55, align 8
  %57 = lshr i32 %56, 8
  %58 = and i32 %57, 255
  %59 = icmp ult i32 %53, %58
  br i1 %59, label %60, label %.critedge2

60:                                               ; preds = %49
  %.not62 = icmp eq ptr %3, null
  br i1 %.not62, label %70, label %61

61:                                               ; preds = %60
  %62 = load i32, ptr %3, align 8
  %63 = icmp eq i32 %62, 31
  br i1 %63, label %64, label %68

64:                                               ; preds = %61
  %65 = getelementptr inbounds i8, ptr %3, i64 8
  %66 = load ptr, ptr %65, align 8
  %67 = load i32, ptr %66, align 8
  br label %68

68:                                               ; preds = %64, %61
  %.052 = phi i32 [ %67, %64 ], [ %62, %61 ]
  %69 = icmp eq i32 %.052, 40
  br label %70

70:                                               ; preds = %60, %68
  %.053 = phi i1 [ %69, %68 ], [ false, %60 ]
  tail call void @cast_no_check(ptr noundef %0, ptr noundef nonnull %1, ptr noundef nonnull %54, i1 noundef zeroext %.053)
  br label %87

.critedge2:                                       ; preds = %46, %49
  %71 = icmp eq i32 %7, 34
  br i1 %71, label %72, label %87

72:                                               ; preds = %.critedge2
  %73 = getelementptr inbounds i8, ptr %6, i64 56
  %74 = load ptr, ptr %73, align 8
  %75 = tail call ptr @type_get_ptr(ptr noundef %74) #10
  %76 = load ptr, ptr %1, align 8
  %.not = icmp eq ptr %76, null
  br i1 %.not, label %86, label %77

77:                                               ; preds = %72
  %78 = load i32, ptr %76, align 8
  %79 = icmp eq i32 %78, 31
  br i1 %79, label %80, label %84

80:                                               ; preds = %77
  %81 = getelementptr inbounds i8, ptr %76, i64 8
  %82 = load ptr, ptr %81, align 8
  %83 = load i32, ptr %82, align 8
  br label %84

84:                                               ; preds = %80, %77
  %.049 = phi i32 [ %83, %80 ], [ %78, %77 ]
  %85 = icmp eq i32 %.049, 40
  br label %86

86:                                               ; preds = %72, %84
  %.051 = phi i1 [ %85, %84 ], [ false, %72 ]
  tail call void @cast_no_check(ptr noundef %0, ptr noundef nonnull %1, ptr noundef %75, i1 noundef zeroext %.051)
  br label %87

87:                                               ; preds = %86, %.critedge2, %70, %37
  ret void
}